
bin\Release\MultiTimer.elf:     file format elf32-avr

Sections:
Idx Name          Size      VMA       LMA       File off  Algn
  0 .text         000003d2  00000000  00000000  00000094  2**1
                  CONTENTS, ALLOC, LOAD, READONLY, CODE
  1 .data         00000008  00800060  000003d2  00000466  2**0
                  CONTENTS, ALLOC, LOAD, DATA
  2 .bss          0000000c  00800068  00800068  0000046e  2**0
                  ALLOC

Disassembly of section .text:

00000000 <__vectors>:
   0:	09 c0       	rjmp	.+18     	; 0x14 <__ctors_end>
   2:	21 c0       	rjmp	.+66     	; 0x46 <__bad_interrupt>
   4:	aa c1       	rjmp	.+852    	; 0x35a <__vector_2>
   6:	1f c0       	rjmp	.+62     	; 0x46 <__bad_interrupt>
   8:	1e c0       	rjmp	.+60     	; 0x46 <__bad_interrupt>
   a:	1d c0       	rjmp	.+58     	; 0x46 <__bad_interrupt>
   c:	1c c0       	rjmp	.+56     	; 0x46 <__bad_interrupt>
   e:	1b c0       	rjmp	.+54     	; 0x46 <__bad_interrupt>
  10:	a4 c0       	rjmp	.+328    	; 0x15a <__vector_8>
  12:	19 c0       	rjmp	.+50     	; 0x46 <__bad_interrupt>

00000014 <__ctors_end>:
  14:	11 24       	eor	r1, r1
  16:	1f be       	out	0x3f, r1	; 63
  18:	cf e9       	ldi	r28, 0x9F	; 159
  1a:	cd bf       	out	0x3d, r28	; 61

0000001c <__do_copy_data>:
  1c:	10 e0       	ldi	r17, 0x00	; 0
  1e:	a0 e6       	ldi	r26, 0x60	; 96
  20:	b0 e0       	ldi	r27, 0x00	; 0
  22:	e2 ed       	ldi	r30, 0xD2	; 210
  24:	f3 e0       	ldi	r31, 0x03	; 3
  26:	02 c0       	rjmp	.+4      	; 0x2c <.do_copy_data_start>

00000028 <.do_copy_data_loop>:
  28:	05 90       	lpm	r0, Z+
  2a:	0d 92       	st	X+, r0

0000002c <.do_copy_data_start>:
  2c:	a8 36       	cpi	r26, 0x68	; 104
  2e:	b1 07       	cpc	r27, r17
  30:	d9 f7       	brne	.-10     	; 0x28 <.do_copy_data_loop>

00000032 <__do_clear_bss>:
  32:	10 e0       	ldi	r17, 0x00	; 0
  34:	a8 e6       	ldi	r26, 0x68	; 104
  36:	b0 e0       	ldi	r27, 0x00	; 0
  38:	01 c0       	rjmp	.+2      	; 0x3c <.do_clear_bss_start>

0000003a <.do_clear_bss_loop>:
  3a:	1d 92       	st	X+, r1

0000003c <.do_clear_bss_start>:
  3c:	a4 37       	cpi	r26, 0x74	; 116
  3e:	b1 07       	cpc	r27, r17
  40:	e1 f7       	brne	.-8      	; 0x3a <.do_clear_bss_loop>
  42:	12 d0       	rcall	.+36     	; 0x68 <main>
  44:	c4 c1       	rjmp	.+904    	; 0x3ce <_exit>

00000046 <__bad_interrupt>:
  46:	dc cf       	rjmp	.-72     	; 0x0 <__vectors>

00000048 <initIO>:
  48:	bc 98       	cbi	0x17, 4	; 23
  4a:	bb 9a       	sbi	0x17, 3	; 23
  4c:	b8 9a       	sbi	0x17, 0	; 23
  4e:	08 95       	ret

00000050 <initINT>:
  50:	8b b7       	in	r24, 0x3b	; 59
  52:	80 62       	ori	r24, 0x20	; 32
  54:	8b bf       	out	0x3b, r24	; 59
  56:	ac 9a       	sbi	0x15, 4	; 21
  58:	81 b5       	in	r24, 0x21	; 33
  5a:	81 62       	ori	r24, 0x21	; 33
  5c:	81 bd       	out	0x21, r24	; 33
  5e:	81 b5       	in	r24, 0x21	; 33
  60:	80 64       	ori	r24, 0x40	; 64
  62:	81 bd       	out	0x21, r24	; 33
  64:	78 94       	sei
  66:	08 95       	ret

00000068 <main>:
  68:	ef df       	rcall	.-34     	; 0x48 <initIO>
  6a:	f2 df       	rcall	.-28     	; 0x50 <initINT>
  6c:	85 b7       	in	r24, 0x35	; 53
  6e:	87 7e       	andi	r24, 0xE7	; 231
  70:	80 61       	ori	r24, 0x10	; 16
  72:	85 bf       	out	0x35, r24	; 53
  74:	85 b7       	in	r24, 0x35	; 53
  76:	80 62       	ori	r24, 0x20	; 32
  78:	85 bf       	out	0x35, r24	; 53
  7a:	88 95       	sleep
  7c:	85 b7       	in	r24, 0x35	; 53
  7e:	8f 7d       	andi	r24, 0xDF	; 223
  80:	f8 cf       	rjmp	.-16     	; 0x72 <main+0xa>

00000082 <blinkLED>:
  82:	28 2f       	mov	r18, r24
  84:	30 e0       	ldi	r19, 0x00	; 0
  86:	22 0f       	add	r18, r18
  88:	33 1f       	adc	r19, r19
  8a:	40 e0       	ldi	r20, 0x00	; 0
  8c:	51 e0       	ldi	r21, 0x01	; 1
  8e:	60 ef       	ldi	r22, 0xF0	; 240
  90:	70 e0       	ldi	r23, 0x00	; 0
  92:	0b c0       	rjmp	.+22     	; 0xaa <__stack+0xb>
  94:	88 b3       	in	r24, 0x18	; 24
  96:	85 27       	eor	r24, r21
  98:	88 bb       	out	0x18, r24	; 24
  9a:	8c e2       	ldi	r24, 0x2C	; 44
  9c:	91 e0       	ldi	r25, 0x01	; 1
  9e:	fb 01       	movw	r30, r22
  a0:	31 97       	sbiw	r30, 0x01	; 1
  a2:	f1 f7       	brne	.-4      	; 0xa0 <__stack+0x1>
  a4:	01 97       	sbiw	r24, 0x01	; 1
  a6:	d9 f7       	brne	.-10     	; 0x9e <blinkLED+0x1c>
  a8:	4f 5f       	subi	r20, 0xFF	; 255
  aa:	84 2f       	mov	r24, r20
  ac:	90 e0       	ldi	r25, 0x00	; 0
  ae:	82 17       	cp	r24, r18
  b0:	93 07       	cpc	r25, r19
  b2:	84 f3       	brlt	.-32     	; 0x94 <blinkLED+0x12>
  b4:	c0 98       	cbi	0x18, 0	; 24
  b6:	08 95       	ret

000000b8 <blinkLONGLED>:
  b8:	28 2f       	mov	r18, r24
  ba:	30 e0       	ldi	r19, 0x00	; 0
  bc:	22 0f       	add	r18, r18
  be:	33 1f       	adc	r19, r19
  c0:	40 e0       	ldi	r20, 0x00	; 0
  c2:	51 e0       	ldi	r21, 0x01	; 1
  c4:	60 ef       	ldi	r22, 0xF0	; 240
  c6:	70 e0       	ldi	r23, 0x00	; 0
  c8:	0b c0       	rjmp	.+22     	; 0xe0 <blinkLONGLED+0x28>
  ca:	88 b3       	in	r24, 0x18	; 24
  cc:	85 27       	eor	r24, r21
  ce:	88 bb       	out	0x18, r24	; 24
  d0:	88 e5       	ldi	r24, 0x58	; 88
  d2:	92 e0       	ldi	r25, 0x02	; 2
  d4:	fb 01       	movw	r30, r22
  d6:	31 97       	sbiw	r30, 0x01	; 1
  d8:	f1 f7       	brne	.-4      	; 0xd6 <blinkLONGLED+0x1e>
  da:	01 97       	sbiw	r24, 0x01	; 1
  dc:	d9 f7       	brne	.-10     	; 0xd4 <blinkLONGLED+0x1c>
  de:	4f 5f       	subi	r20, 0xFF	; 255
  e0:	84 2f       	mov	r24, r20
  e2:	90 e0       	ldi	r25, 0x00	; 0
  e4:	82 17       	cp	r24, r18
  e6:	93 07       	cpc	r25, r19
  e8:	84 f3       	brlt	.-32     	; 0xca <blinkLONGLED+0x12>
  ea:	c0 98       	cbi	0x18, 0	; 24
  ec:	08 95       	ret

000000ee <blinkLONG10LED>:
  ee:	28 2f       	mov	r18, r24
  f0:	30 e0       	ldi	r19, 0x00	; 0
  f2:	22 0f       	add	r18, r18
  f4:	33 1f       	adc	r19, r19
  f6:	40 e0       	ldi	r20, 0x00	; 0
  f8:	51 e0       	ldi	r21, 0x01	; 1
  fa:	60 ef       	ldi	r22, 0xF0	; 240
  fc:	70 e0       	ldi	r23, 0x00	; 0
  fe:	0b c0       	rjmp	.+22     	; 0x116 <blinkLONG10LED+0x28>
 100:	88 b3       	in	r24, 0x18	; 24
 102:	85 27       	eor	r24, r21
 104:	88 bb       	out	0x18, r24	; 24
 106:	80 eb       	ldi	r24, 0xB0	; 176
 108:	94 e0       	ldi	r25, 0x04	; 4
 10a:	fb 01       	movw	r30, r22
 10c:	31 97       	sbiw	r30, 0x01	; 1
 10e:	f1 f7       	brne	.-4      	; 0x10c <blinkLONG10LED+0x1e>
 110:	01 97       	sbiw	r24, 0x01	; 1
 112:	d9 f7       	brne	.-10     	; 0x10a <blinkLONG10LED+0x1c>
 114:	4f 5f       	subi	r20, 0xFF	; 255
 116:	84 2f       	mov	r24, r20
 118:	90 e0       	ldi	r25, 0x00	; 0
 11a:	82 17       	cp	r24, r18
 11c:	93 07       	cpc	r25, r19
 11e:	84 f3       	brlt	.-32     	; 0x100 <blinkLONG10LED+0x12>
 120:	c0 98       	cbi	0x18, 0	; 24
 122:	08 95       	ret

00000124 <buzz>:
 124:	28 2f       	mov	r18, r24
 126:	30 e0       	ldi	r19, 0x00	; 0
 128:	22 0f       	add	r18, r18
 12a:	33 1f       	adc	r19, r19
 12c:	40 e0       	ldi	r20, 0x00	; 0
 12e:	58 e0       	ldi	r21, 0x08	; 8
 130:	60 ef       	ldi	r22, 0xF0	; 240
 132:	70 e0       	ldi	r23, 0x00	; 0
 134:	0b c0       	rjmp	.+22     	; 0x14c <buzz+0x28>
 136:	88 b3       	in	r24, 0x18	; 24
 138:	85 27       	eor	r24, r21
 13a:	88 bb       	out	0x18, r24	; 24
 13c:	8c e2       	ldi	r24, 0x2C	; 44
 13e:	91 e0       	ldi	r25, 0x01	; 1
 140:	fb 01       	movw	r30, r22
 142:	31 97       	sbiw	r30, 0x01	; 1
 144:	f1 f7       	brne	.-4      	; 0x142 <buzz+0x1e>
 146:	01 97       	sbiw	r24, 0x01	; 1
 148:	d9 f7       	brne	.-10     	; 0x140 <buzz+0x1c>
 14a:	4f 5f       	subi	r20, 0xFF	; 255
 14c:	84 2f       	mov	r24, r20
 14e:	90 e0       	ldi	r25, 0x00	; 0
 150:	82 17       	cp	r24, r18
 152:	93 07       	cpc	r25, r19
 154:	84 f3       	brlt	.-32     	; 0x136 <buzz+0x12>
 156:	c3 98       	cbi	0x18, 3	; 24
 158:	08 95       	ret

0000015a <__vector_8>:
 15a:	1f 92       	push	r1
 15c:	0f 92       	push	r0
 15e:	0f b6       	in	r0, 0x3f	; 63
 160:	0f 92       	push	r0
 162:	11 24       	eor	r1, r1
 164:	2f 93       	push	r18
 166:	3f 93       	push	r19
 168:	4f 93       	push	r20
 16a:	5f 93       	push	r21
 16c:	6f 93       	push	r22
 16e:	7f 93       	push	r23
 170:	8f 93       	push	r24
 172:	9f 93       	push	r25
 174:	af 93       	push	r26
 176:	bf 93       	push	r27
 178:	ef 93       	push	r30
 17a:	ff 93       	push	r31
 17c:	80 91 6d 00 	lds	r24, 0x006D
 180:	8f 5f       	subi	r24, 0xFF	; 255
 182:	80 93 6d 00 	sts	0x006D, r24
 186:	88 30       	cpi	r24, 0x08	; 8
 188:	38 f0       	brcs	.+14     	; 0x198 <__vector_8+0x3e>
 18a:	80 91 66 00 	lds	r24, 0x0066
 18e:	8f 5f       	subi	r24, 0xFF	; 255
 190:	80 93 66 00 	sts	0x0066, r24
 194:	10 92 6d 00 	sts	0x006D, r1
 198:	30 91 66 00 	lds	r19, 0x0066
 19c:	3c 33       	cpi	r19, 0x3C	; 60
 19e:	00 f1       	brcs	.+64     	; 0x1e0 <__vector_8+0x86>
 1a0:	80 91 65 00 	lds	r24, 0x0065
 1a4:	8f 5f       	subi	r24, 0xFF	; 255
 1a6:	80 93 65 00 	sts	0x0065, r24
 1aa:	20 91 72 00 	lds	r18, 0x0072
 1ae:	2f 5f       	subi	r18, 0xFF	; 255
 1b0:	20 93 72 00 	sts	0x0072, r18
 1b4:	63 e0       	ldi	r22, 0x03	; 3
 1b6:	ff d0       	rcall	.+510    	; 0x3b6 <__udivmodqi4>
 1b8:	99 23       	and	r25, r25
 1ba:	19 f4       	brne	.+6      	; 0x1c2 <__vector_8+0x68>
 1bc:	3e 5f       	subi	r19, 0xFE	; 254
 1be:	30 93 66 00 	sts	0x0066, r19
 1c2:	27 30       	cpi	r18, 0x07	; 7
 1c4:	39 f4       	brne	.+14     	; 0x1d4 <__vector_8+0x7a>
 1c6:	80 91 66 00 	lds	r24, 0x0066
 1ca:	8b 5f       	subi	r24, 0xFB	; 251
 1cc:	80 93 66 00 	sts	0x0066, r24
 1d0:	10 92 72 00 	sts	0x0072, r1
 1d4:	80 91 66 00 	lds	r24, 0x0066
 1d8:	6c e3       	ldi	r22, 0x3C	; 60
 1da:	ed d0       	rcall	.+474    	; 0x3b6 <__udivmodqi4>
 1dc:	90 93 66 00 	sts	0x0066, r25
 1e0:	80 91 65 00 	lds	r24, 0x0065
 1e4:	88 31       	cpi	r24, 0x18	; 24
 1e6:	11 f4       	brne	.+4      	; 0x1ec <__vector_8+0x92>
 1e8:	10 92 65 00 	sts	0x0065, r1
 1ec:	80 91 70 00 	lds	r24, 0x0070
 1f0:	81 30       	cpi	r24, 0x01	; 1
 1f2:	f1 f4       	brne	.+60     	; 0x230 <__vector_8+0xd6>
 1f4:	80 91 6e 00 	lds	r24, 0x006E
 1f8:	8f 5f       	subi	r24, 0xFF	; 255
 1fa:	80 93 6e 00 	sts	0x006E, r24
 1fe:	88 30       	cpi	r24, 0x08	; 8
 200:	38 f0       	brcs	.+14     	; 0x210 <__vector_8+0xb6>
 202:	10 92 6e 00 	sts	0x006E, r1
 206:	80 91 6f 00 	lds	r24, 0x006F
 20a:	8f 5f       	subi	r24, 0xFF	; 255
 20c:	80 93 6f 00 	sts	0x006F, r24
 210:	90 91 6f 00 	lds	r25, 0x006F
 214:	80 91 71 00 	lds	r24, 0x0071
 218:	98 17       	cp	r25, r24
 21a:	51 f4       	brne	.+20     	; 0x230 <__vector_8+0xd6>
 21c:	f8 94       	cli
 21e:	83 e0       	ldi	r24, 0x03	; 3
 220:	81 df       	rcall	.-254    	; 0x124 <buzz>
 222:	83 e0       	ldi	r24, 0x03	; 3
 224:	2e df       	rcall	.-420    	; 0x82 <blinkLED>
 226:	78 94       	sei
 228:	10 92 70 00 	sts	0x0070, r1
 22c:	10 92 6f 00 	sts	0x006F, r1
 230:	ff 91       	pop	r31
 232:	ef 91       	pop	r30
 234:	bf 91       	pop	r27
 236:	af 91       	pop	r26
 238:	9f 91       	pop	r25
 23a:	8f 91       	pop	r24
 23c:	7f 91       	pop	r23
 23e:	6f 91       	pop	r22
 240:	5f 91       	pop	r21
 242:	4f 91       	pop	r20
 244:	3f 91       	pop	r19
 246:	2f 91       	pop	r18
 248:	0f 90       	pop	r0
 24a:	0f be       	out	0x3f, r0	; 63
 24c:	0f 90       	pop	r0
 24e:	1f 90       	pop	r1
 250:	18 95       	reti

00000252 <showCurTime>:
 252:	0f 93       	push	r16
 254:	1f 93       	push	r17
 256:	10 91 65 00 	lds	r17, 0x0065
 25a:	00 91 66 00 	lds	r16, 0x0066
 25e:	81 2f       	mov	r24, r17
 260:	65 e0       	ldi	r22, 0x05	; 5
 262:	a9 d0       	rcall	.+338    	; 0x3b6 <__udivmodqi4>
 264:	29 df       	rcall	.-430    	; 0xb8 <blinkLONGLED>
 266:	81 2f       	mov	r24, r17
 268:	65 e0       	ldi	r22, 0x05	; 5
 26a:	a5 d0       	rcall	.+330    	; 0x3b6 <__udivmodqi4>
 26c:	89 2f       	mov	r24, r25
 26e:	09 df       	rcall	.-494    	; 0x82 <blinkLED>
 270:	88 e5       	ldi	r24, 0x58	; 88
 272:	92 e0       	ldi	r25, 0x02	; 2
 274:	20 ef       	ldi	r18, 0xF0	; 240
 276:	30 e0       	ldi	r19, 0x00	; 0
 278:	f9 01       	movw	r30, r18
 27a:	31 97       	sbiw	r30, 0x01	; 1
 27c:	f1 f7       	brne	.-4      	; 0x27a <showCurTime+0x28>
 27e:	01 97       	sbiw	r24, 0x01	; 1
 280:	d9 f7       	brne	.-10     	; 0x278 <showCurTime+0x26>
 282:	80 2f       	mov	r24, r16
 284:	6a e0       	ldi	r22, 0x0A	; 10
 286:	97 d0       	rcall	.+302    	; 0x3b6 <__udivmodqi4>
 288:	8f 5f       	subi	r24, 0xFF	; 255
 28a:	fb de       	rcall	.-522    	; 0x82 <blinkLED>
 28c:	1f 91       	pop	r17
 28e:	0f 91       	pop	r16
 290:	08 95       	ret

00000292 <countButton>:
 292:	10 92 6c 00 	sts	0x006C, r1
 296:	10 92 69 00 	sts	0x0069, r1
 29a:	81 e0       	ldi	r24, 0x01	; 1
 29c:	f2 de       	rcall	.-540    	; 0x82 <blinkLED>
 29e:	80 91 68 00 	lds	r24, 0x0068
 2a2:	30 91 69 00 	lds	r19, 0x0069
 2a6:	90 91 6c 00 	lds	r25, 0x006C
 2aa:	9f 5f       	subi	r25, 0xFF	; 255
 2ac:	a0 ef       	ldi	r26, 0xF0	; 240
 2ae:	b0 e0       	ldi	r27, 0x00	; 0
 2b0:	60 ea       	ldi	r22, 0xA0	; 160
 2b2:	7c e8       	ldi	r23, 0x8C	; 140
 2b4:	59 2f       	mov	r21, r25
 2b6:	53 1b       	sub	r21, r19
 2b8:	59 30       	cpi	r21, 0x09	; 9
 2ba:	10 f4       	brcc	.+4      	; 0x2c0 <countButton+0x2e>
 2bc:	40 e0       	ldi	r20, 0x00	; 0
 2be:	09 c0       	rjmp	.+18     	; 0x2d2 <countButton+0x40>
 2c0:	28 2f       	mov	r18, r24
 2c2:	81 11       	cpse	r24, r1
 2c4:	21 e0       	ldi	r18, 0x01	; 1
 2c6:	42 2f       	mov	r20, r18
 2c8:	59 31       	cpi	r21, 0x19	; 25
 2ca:	18 f0       	brcs	.+6      	; 0x2d2 <countButton+0x40>
 2cc:	88 23       	and	r24, r24
 2ce:	09 f4       	brne	.+2      	; 0x2d2 <countButton+0x40>
 2d0:	42 e0       	ldi	r20, 0x02	; 2
 2d2:	b4 99       	sbic	0x16, 4	; 22
 2d4:	0a c0       	rjmp	.+20     	; 0x2ea <countButton+0x58>
 2d6:	2c e2       	ldi	r18, 0x2C	; 44
 2d8:	31 e0       	ldi	r19, 0x01	; 1
 2da:	fd 01       	movw	r30, r26
 2dc:	31 97       	sbiw	r30, 0x01	; 1
 2de:	f1 f7       	brne	.-4      	; 0x2dc <countButton+0x4a>
 2e0:	21 50       	subi	r18, 0x01	; 1
 2e2:	30 40       	sbci	r19, 0x00	; 0
 2e4:	d1 f7       	brne	.-12     	; 0x2da <countButton+0x48>
 2e6:	8f 5f       	subi	r24, 0xFF	; 255
 2e8:	39 2f       	mov	r19, r25
 2ea:	fb 01       	movw	r30, r22
 2ec:	31 97       	sbiw	r30, 0x01	; 1
 2ee:	f1 f7       	brne	.-4      	; 0x2ec <countButton+0x5a>
 2f0:	29 2f       	mov	r18, r25
 2f2:	2f 5f       	subi	r18, 0xFF	; 255
 2f4:	44 23       	and	r20, r20
 2f6:	11 f4       	brne	.+4      	; 0x2fc <countButton+0x6a>
 2f8:	92 2f       	mov	r25, r18
 2fa:	dc cf       	rjmp	.-72     	; 0x2b4 <countButton+0x22>
 2fc:	80 93 68 00 	sts	0x0068, r24
 300:	50 93 6b 00 	sts	0x006B, r21
 304:	30 93 69 00 	sts	0x0069, r19
 308:	90 93 6a 00 	sts	0x006A, r25
 30c:	90 93 6c 00 	sts	0x006C, r25
 310:	41 30       	cpi	r20, 0x01	; 1
 312:	11 f5       	brne	.+68     	; 0x358 <countButton+0xc6>
 314:	b6 de       	rcall	.-660    	; 0x82 <blinkLED>
 316:	88 e5       	ldi	r24, 0x58	; 88
 318:	92 e0       	ldi	r25, 0x02	; 2
 31a:	20 ef       	ldi	r18, 0xF0	; 240
 31c:	30 e0       	ldi	r19, 0x00	; 0
 31e:	f9 01       	movw	r30, r18
 320:	31 97       	sbiw	r30, 0x01	; 1
 322:	f1 f7       	brne	.-4      	; 0x320 <countButton+0x8e>
 324:	01 97       	sbiw	r24, 0x01	; 1
 326:	d9 f7       	brne	.-10     	; 0x31e <countButton+0x8c>
 328:	e0 91 68 00 	lds	r30, 0x0068
 32c:	e1 30       	cpi	r30, 0x01	; 1
 32e:	11 f4       	brne	.+4      	; 0x334 <countButton+0xa2>
 330:	90 df       	rcall	.-224    	; 0x252 <showCurTime>
 332:	10 c0       	rjmp	.+32     	; 0x354 <countButton+0xc2>
 334:	81 e0       	ldi	r24, 0x01	; 1
 336:	80 93 70 00 	sts	0x0070, r24
 33a:	e7 30       	cpi	r30, 0x07	; 7
 33c:	28 f4       	brcc	.+10     	; 0x348 <countButton+0xb6>
 33e:	f0 e0       	ldi	r31, 0x00	; 0
 340:	e2 5a       	subi	r30, 0xA2	; 162
 342:	ff 4f       	sbci	r31, 0xFF	; 255
 344:	80 81       	ld	r24, Z
 346:	02 c0       	rjmp	.+4      	; 0x34c <countButton+0xba>
 348:	80 91 60 00 	lds	r24, 0x0060
 34c:	80 93 71 00 	sts	0x0071, r24
 350:	10 92 6f 00 	sts	0x006F, r1
 354:	10 92 68 00 	sts	0x0068, r1
 358:	08 95       	ret

0000035a <__vector_2>:
 35a:	1f 92       	push	r1
 35c:	0f 92       	push	r0
 35e:	0f b6       	in	r0, 0x3f	; 63
 360:	0f 92       	push	r0
 362:	11 24       	eor	r1, r1
 364:	2f 93       	push	r18
 366:	3f 93       	push	r19
 368:	4f 93       	push	r20
 36a:	5f 93       	push	r21
 36c:	6f 93       	push	r22
 36e:	7f 93       	push	r23
 370:	8f 93       	push	r24
 372:	9f 93       	push	r25
 374:	af 93       	push	r26
 376:	bf 93       	push	r27
 378:	ef 93       	push	r30
 37a:	ff 93       	push	r31
 37c:	80 91 73 00 	lds	r24, 0x0073
 380:	8f 5f       	subi	r24, 0xFF	; 255
 382:	80 93 73 00 	sts	0x0073, r24
 386:	80 fd       	sbrc	r24, 0
 388:	05 c0       	rjmp	.+10     	; 0x394 <__vector_2+0x3a>
 38a:	10 92 73 00 	sts	0x0073, r1
 38e:	f8 94       	cli
 390:	80 df       	rcall	.-256    	; 0x292 <countButton>
 392:	78 94       	sei
 394:	ff 91       	pop	r31
 396:	ef 91       	pop	r30
 398:	bf 91       	pop	r27
 39a:	af 91       	pop	r26
 39c:	9f 91       	pop	r25
 39e:	8f 91       	pop	r24
 3a0:	7f 91       	pop	r23
 3a2:	6f 91       	pop	r22
 3a4:	5f 91       	pop	r21
 3a6:	4f 91       	pop	r20
 3a8:	3f 91       	pop	r19
 3aa:	2f 91       	pop	r18
 3ac:	0f 90       	pop	r0
 3ae:	0f be       	out	0x3f, r0	; 63
 3b0:	0f 90       	pop	r0
 3b2:	1f 90       	pop	r1
 3b4:	18 95       	reti

000003b6 <__udivmodqi4>:
 3b6:	99 1b       	sub	r25, r25
 3b8:	79 e0       	ldi	r23, 0x09	; 9
 3ba:	04 c0       	rjmp	.+8      	; 0x3c4 <__udivmodqi4_ep>

000003bc <__udivmodqi4_loop>:
 3bc:	99 1f       	adc	r25, r25
 3be:	96 17       	cp	r25, r22
 3c0:	08 f0       	brcs	.+2      	; 0x3c4 <__udivmodqi4_ep>
 3c2:	96 1b       	sub	r25, r22

000003c4 <__udivmodqi4_ep>:
 3c4:	88 1f       	adc	r24, r24
 3c6:	7a 95       	dec	r23
 3c8:	c9 f7       	brne	.-14     	; 0x3bc <__udivmodqi4_loop>
 3ca:	80 95       	com	r24
 3cc:	08 95       	ret

000003ce <_exit>:
 3ce:	f8 94       	cli

000003d0 <__stop_program>:
 3d0:	ff cf       	rjmp	.-2      	; 0x3d0 <__stop_program>
